target datalayout = "e-m:e-p270:32:32-p271:32:32-p272:64:64-i64:64-i128:128-f80:128-n8:16:32:64-S128"
target triple = "x86_64-pc-linux-gnu"

%struct.RelationData = type { %struct.RelFileLocator, ptr, i32, i32, i8, i8, i8, i8, i8, i32, i32, i32, i32, ptr, ptr, i32, %struct.LockInfoData, ptr, ptr, ptr, ptr, ptr, i8, ptr, ptr, ptr, ptr, ptr, ptr, i32, ptr, i8, ptr, ptr, i32, i8, i32, ptr, i8, ptr, ptr, ptr, ptr, ptr, ptr, ptr, i32, ptr, ptr, ptr, ptr, ptr, ptr, ptr, ptr, ptr, ptr, ptr, ptr, ptr, ptr, ptr, ptr, ptr, ptr, ptr, i32, i8, ptr }
%struct.RelFileLocator = type { i32, i32, i32 }
%struct.LockInfoData = type { %struct.LockRelId }
%struct.LockRelId = type { i32, i32 }
%struct.PlannerInfo = type { i32, ptr, ptr, i32, ptr, ptr, ptr, ptr, i32, ptr, ptr, ptr, ptr, ptr, ptr, ptr, ptr, i32, ptr, ptr, ptr, ptr, ptr, i8, ptr, ptr, ptr, ptr, ptr, i32, ptr, ptr, ptr, ptr, ptr, ptr, ptr, i32, ptr, ptr, ptr, i32, ptr, ptr, ptr, ptr, ptr, ptr, [8 x ptr], [8 x ptr], ptr, ptr, ptr, ptr, ptr, ptr, ptr, double, double, double, i32, i8, i8, i8, i8, i8, i8, i8, i32, ptr, ptr, i32, i8, i8, i32, ptr, ptr, ptr, ptr, ptr, ptr, i8, ptr }
%struct.RangeTblEntry = type { i32, ptr, ptr, i32, i32, i8, i8, i32, i32, ptr, ptr, i8, i32, i32, ptr, ptr, ptr, ptr, ptr, i8, ptr, ptr, ptr, i32, i8, ptr, ptr, ptr, ptr, double, ptr, i8, i8, ptr }
%struct.List = type { i32, i32, i32, ptr, [0 x %union.ListCell] }
%union.ListCell = type { ptr }
%struct.Query = type { i32, i32, i32, i64, i8, ptr, i32, i8, i8, i8, i8, i8, i8, i8, i8, i8, i8, i8, ptr, ptr, ptr, ptr, ptr, i32, ptr, ptr, i32, ptr, ptr, ptr, ptr, ptr, i8, ptr, ptr, ptr, ptr, ptr, ptr, ptr, i32, ptr, ptr, ptr, ptr, i32, i32 }
%struct.TriggerDesc = type { ptr, i32, i8, i8, i8, i8, i8, i8, i8, i8, i8, i8, i8, i8, i8, i8, i8, i8, i8, i8, i8, i8, i8 }

@.str.1 = private unnamed_addr constant [10 x i8] c"plancat.c\00", align 1
@.str.13 = private unnamed_addr constant [25 x i8] c"unrecognized CmdType: %d\00", align 1
@__func__.has_row_triggers = private unnamed_addr constant [17 x i8] c"has_row_triggers\00", align 1

; Function Attrs: inlinehint nounwind uwtable
define internal ptr @list_nth_cell(ptr noundef %0, i32 noundef %1) #4 {
  %3 = alloca ptr, align 8
  %4 = alloca i32, align 4
  store ptr %0, ptr %3, align 8
  store i32 %1, ptr %4, align 4
  %5 = load ptr, ptr %3, align 8
  %6 = getelementptr inbounds nuw %struct.List, ptr %5, i32 0, i32 3
  %7 = load ptr, ptr %6, align 8
  %8 = load i32, ptr %4, align 4
  %9 = sext i32 %8 to i64
  %10 = getelementptr inbounds %union.ListCell, ptr %7, i64 %9
  ret ptr %10
}

; Function Attrs: inlinehint nounwind uwtable
define internal ptr @list_nth(ptr noundef %0, i32 noundef %1) #4 {
  %3 = alloca ptr, align 8
  %4 = alloca i32, align 4
  store ptr %0, ptr %3, align 8
  store i32 %1, ptr %4, align 4
  %5 = load ptr, ptr %3, align 8
  %6 = load i32, ptr %4, align 4
  %7 = call ptr @list_nth_cell(ptr noundef %5, i32 noundef %6)
  %8 = load ptr, ptr %7, align 8
  ret ptr %8
}

; Function Attrs: nounwind uwtable
define dso_local zeroext i1 @has_row_triggers(ptr noundef %0, i32 noundef %1, i32 noundef %2) #0 {
  %4 = alloca ptr, align 8
  %5 = alloca i32, align 4
  %6 = alloca i32, align 4
  %7 = alloca ptr, align 8
  %8 = alloca ptr, align 8
  %9 = alloca ptr, align 8
  %10 = alloca i8, align 1
  store ptr %0, ptr %4, align 8
  store i32 %1, ptr %5, align 4
  store i32 %2, ptr %6, align 4
  call void @llvm.lifetime.start.p0(i64 8, ptr %7) #10
  %11 = load ptr, ptr %4, align 8
  %12 = getelementptr inbounds nuw %struct.PlannerInfo, ptr %11, i32 0, i32 9
  %13 = load ptr, ptr %12, align 8
  %14 = icmp ne ptr %13, null
  br i1 %14, label %15, label %23

15:                                               ; preds = %3
  %16 = load ptr, ptr %4, align 8
  %17 = getelementptr inbounds nuw %struct.PlannerInfo, ptr %16, i32 0, i32 9
  %18 = load ptr, ptr %17, align 8
  %19 = load i32, ptr %5, align 4
  %20 = zext i32 %19 to i64
  %21 = getelementptr inbounds nuw ptr, ptr %18, i64 %20
  %22 = load ptr, ptr %21, align 8
  br label %32

23:                                               ; preds = %3
  %24 = load ptr, ptr %4, align 8
  %25 = getelementptr inbounds nuw %struct.PlannerInfo, ptr %24, i32 0, i32 1
  %26 = load ptr, ptr %25, align 8
  %27 = getelementptr inbounds nuw %struct.Query, ptr %26, i32 0, i32 19
  %28 = load ptr, ptr %27, align 8
  %29 = load i32, ptr %5, align 4
  %30 = sub i32 %29, 1
  %31 = call ptr @list_nth(ptr noundef %28, i32 noundef %30)
  br label %32

32:                                               ; preds = %23, %15
  %33 = phi ptr [ %22, %15 ], [ %31, %23 ]
  store ptr %33, ptr %7, align 8
  call void @llvm.lifetime.start.p0(i64 8, ptr %8) #10
  call void @llvm.lifetime.start.p0(i64 8, ptr %9) #10
  call void @llvm.lifetime.start.p0(i64 1, ptr %10) #10
  store i8 0, ptr %10, align 1
  %34 = load ptr, ptr %7, align 8
  %35 = getelementptr inbounds nuw %struct.RangeTblEntry, ptr %34, i32 0, i32 4
  %36 = load i32, ptr %35, align 4
  %37 = call ptr @table_open(i32 noundef %36, i32 noundef 0)
  store ptr %37, ptr %8, align 8
  %38 = load ptr, ptr %8, align 8
  %39 = getelementptr inbounds nuw %struct.RelationData, ptr %38, i32 0, i32 19
  %40 = load ptr, ptr %39, align 8
  store ptr %40, ptr %9, align 8
  %41 = load i32, ptr %6, align 4
  switch i32 %41, label %88 [
    i32 3, label %42
    i32 2, label %57
    i32 4, label %72
    i32 5, label %87
  ]

42:                                               ; preds = %32
  %43 = load ptr, ptr %9, align 8
  %44 = icmp ne ptr %43, null
  br i1 %44, label %45, label %56

45:                                               ; preds = %42
  %46 = load ptr, ptr %9, align 8
  %47 = getelementptr inbounds nuw %struct.TriggerDesc, ptr %46, i32 0, i32 3
  %48 = load i8, ptr %47, align 1, !range !4, !noundef !5
  %49 = trunc i8 %48 to i1
  br i1 %49, label %55, label %50

50:                                               ; preds = %45
  %51 = load ptr, ptr %9, align 8
  %52 = getelementptr inbounds nuw %struct.TriggerDesc, ptr %51, i32 0, i32 2
  %53 = load i8, ptr %52, align 4, !range !4, !noundef !5
  %54 = trunc i8 %53 to i1
  br i1 %54, label %55, label %56

55:                                               ; preds = %50, %45
  store i8 1, ptr %10, align 1
  br label %56

56:                                               ; preds = %55, %50, %42
  br label %100

57:                                               ; preds = %32
  %58 = load ptr, ptr %9, align 8
  %59 = icmp ne ptr %58, null
  br i1 %59, label %60, label %71

60:                                               ; preds = %57
  %61 = load ptr, ptr %9, align 8
  %62 = getelementptr inbounds nuw %struct.TriggerDesc, ptr %61, i32 0, i32 8
  %63 = load i8, ptr %62, align 2, !range !4, !noundef !5
  %64 = trunc i8 %63 to i1
  br i1 %64, label %70, label %65

65:                                               ; preds = %60
  %66 = load ptr, ptr %9, align 8
  %67 = getelementptr inbounds nuw %struct.TriggerDesc, ptr %66, i32 0, i32 7
  %68 = load i8, ptr %67, align 1, !range !4, !noundef !5
  %69 = trunc i8 %68 to i1
  br i1 %69, label %70, label %71

70:                                               ; preds = %65, %60
  store i8 1, ptr %10, align 1
  br label %71

71:                                               ; preds = %70, %65, %57
  br label %100

72:                                               ; preds = %32
  %73 = load ptr, ptr %9, align 8
  %74 = icmp ne ptr %73, null
  br i1 %74, label %75, label %86

75:                                               ; preds = %72
  %76 = load ptr, ptr %9, align 8
  %77 = getelementptr inbounds nuw %struct.TriggerDesc, ptr %76, i32 0, i32 13
  %78 = load i8, ptr %77, align 1, !range !4, !noundef !5
  %79 = trunc i8 %78 to i1
  br i1 %79, label %85, label %80

80:                                               ; preds = %75
  %81 = load ptr, ptr %9, align 8
  %82 = getelementptr inbounds nuw %struct.TriggerDesc, ptr %81, i32 0, i32 12
  %83 = load i8, ptr %82, align 2, !range !4, !noundef !5
  %84 = trunc i8 %83 to i1
  br i1 %84, label %85, label %86

85:                                               ; preds = %80, %75
  store i8 1, ptr %10, align 1
  br label %86

86:                                               ; preds = %85, %80, %72
  br label %100

87:                                               ; preds = %32
  store i8 0, ptr %10, align 1
  br label %100

88:                                               ; preds = %32
  br label %89

89:                                               ; preds = %88
  br i1 true, label %90, label %92

90:                                               ; preds = %89
  %91 = call zeroext i1 @errstart_cold(i32 noundef 21, ptr noundef null) #11
  br i1 %91, label %94, label %97

92:                                               ; preds = %89
  %93 = call zeroext i1 @errstart(i32 noundef 21, ptr noundef null)
  br i1 %93, label %94, label %97

94:                                               ; preds = %92, %90
  %95 = load i32, ptr %6, align 4
  %96 = call i32 (ptr, ...) @errmsg_internal(ptr noundef @.str.13, i32 noundef %95)
  call void @errfinish(ptr noundef @.str.1, i32 noundef 2296, ptr noundef @__func__.has_row_triggers)
  br label %97

97:                                               ; preds = %94, %92, %90
  unreachable

98:                                               ; No predecessors!
  br label %99

99:                                               ; preds = %98
  br label %100

100:                                              ; preds = %99, %87, %86, %71, %56
  %101 = load ptr, ptr %8, align 8
  call void @table_close(ptr noundef %101, i32 noundef 0)
  %102 = load i8, ptr %10, align 1, !range !4, !noundef !5
  %103 = trunc i8 %102 to i1
  call void @llvm.lifetime.end.p0(i64 1, ptr %10) #10
  call void @llvm.lifetime.end.p0(i64 8, ptr %9) #10
  call void @llvm.lifetime.end.p0(i64 8, ptr %8) #10
  call void @llvm.lifetime.end.p0(i64 8, ptr %7) #10
  ret i1 %103
}