; Function Attrs: nounwind uwtable
define dso_local noundef zeroext i1 @has_row_triggers(ptr noundef readonly captures(none) %0, i32 noundef %1, i32 noundef %2) local_unnamed_addr #0 {
  %4 = getelementptr inbounds nuw i8, ptr %0, i64 72
  %5 = load ptr, ptr %4, align 8
  %.not = icmp eq ptr %5, null
  br i1 %.not, label %9, label %6

6:                                                ; preds = %3
  %7 = zext i32 %1 to i64
  %8 = getelementptr inbounds nuw ptr, ptr %5, i64 %7
  br label %18

9:                                                ; preds = %3
  %10 = getelementptr inbounds nuw i8, ptr %0, i64 8
  %11 = load ptr, ptr %10, align 8
  %12 = getelementptr inbounds nuw i8, ptr %11, i64 64
  %13 = load ptr, ptr %12, align 8
  %14 = add i32 %1, -1
  %15 = getelementptr i8, ptr %13, i64 16
  %.val = load ptr, ptr %15, align 8
  %16 = sext i32 %14 to i64
  %17 = getelementptr inbounds %union.ListCell, ptr %.val, i64 %16
  br label %18

18:                                               ; preds = %9, %6
  %.in = phi ptr [ %8, %6 ], [ %17, %9 ]
  %19 = load ptr, ptr %.in, align 8
  %20 = getelementptr inbounds nuw i8, ptr %19, i64 28
  %21 = load i32, ptr %20, align 4
  %22 = tail call ptr @table_open(i32 noundef %21, i32 noundef 0) #10
  %23 = getelementptr inbounds nuw i8, ptr %22, i64 104
  %24 = load ptr, ptr %23, align 8
  switch i32 %2, label %55 [
    i32 3, label %25
    i32 2, label %35
    i32 4, label %45
    i32 5, label %58
  ]

25:                                               ; preds = %18
  %.not23 = icmp eq ptr %24, null
  br i1 %.not23, label %58, label %26

26:                                               ; preds = %25
  %27 = getelementptr inbounds nuw i8, ptr %24, i64 13
  %28 = load i8, ptr %27, align 1, !range !4, !noundef !5
  %29 = trunc nuw i8 %28 to i1
  br i1 %29, label %34, label %30

30:                                               ; preds = %26
  %31 = getelementptr inbounds nuw i8, ptr %24, i64 12
  %32 = load i8, ptr %31, align 4, !range !4, !noundef !5
  %33 = trunc nuw i8 %32 to i1
  br i1 %33, label %34, label %58

34:                                               ; preds = %30, %26
  br label %58

35:                                               ; preds = %18
  %.not22 = icmp eq ptr %24, null
  br i1 %.not22, label %58, label %36

36:                                               ; preds = %35
  %37 = getelementptr inbounds nuw i8, ptr %24, i64 18
  %38 = load i8, ptr %37, align 2, !range !4, !noundef !5
  %39 = trunc nuw i8 %38 to i1
  br i1 %39, label %44, label %40

40:                                               ; preds = %36
  %41 = getelementptr inbounds nuw i8, ptr %24, i64 17
  %42 = load i8, ptr %41, align 1, !range !4, !noundef !5
  %43 = trunc nuw i8 %42 to i1
  br i1 %43, label %44, label %58

44:                                               ; preds = %40, %36
  br label %58

45:                                               ; preds = %18
  %.not21 = icmp eq ptr %24, null
  br i1 %.not21, label %58, label %46

46:                                               ; preds = %45
  %47 = getelementptr inbounds nuw i8, ptr %24, i64 23
  %48 = load i8, ptr %47, align 1, !range !4, !noundef !5
  %49 = trunc nuw i8 %48 to i1
  br i1 %49, label %54, label %50

50:                                               ; preds = %46
  %51 = getelementptr inbounds nuw i8, ptr %24, i64 22
  %52 = load i8, ptr %51, align 2, !range !4, !noundef !5
  %53 = trunc nuw i8 %52 to i1
  br i1 %53, label %54, label %58

54:                                               ; preds = %50, %46
  br label %58

55:                                               ; preds = %18
  %56 = tail call zeroext i1 @errstart_cold(i32 noundef 21, ptr noundef null) #11
  tail call void @llvm.assume(i1 %56)
  %57 = tail call i32 (ptr, ...) @errmsg_internal(ptr noundef nonnull @.str.13, i32 noundef %2) #10
  tail call void @errfinish(ptr noundef nonnull @.str.1, i32 noundef 2296, ptr noundef nonnull @__func__.has_row_triggers) #10
  unreachable

58:                                               ; preds = %18, %45, %50, %54, %35, %40, %44, %25, %30, %34
  %.0 = phi i1 [ true, %54 ], [ false, %50 ], [ false, %45 ], [ true, %44 ], [ false, %40 ], [ false, %35 ], [ true, %34 ], [ false, %30 ], [ false, %25 ], [ false, %18 ]
  tail call void @table_close(ptr noundef nonnull %22, i32 noundef 0) #10
  ret i1 %.0
}